target datalayout = "e-m:e-p270:32:32-p271:32:32-p272:64:64-i64:64-i128:128-f80:128-n8:16:32:64-S128"
target triple = "x86_64-pc-linux-gnu"

%struct.VP9RawFrameHeader = type { i8, i8, i8, i8, i8, i8, i8, i8, i8, i8, i8, i8, i8, i8, i8, i8, [3 x i8], [4 x i8], i8, i8, i8, i8, [3 x i8], i16, i16, i8, i16, i16, i8, i8, i8, i8, i8, i8, [4 x i8], [4 x i8], [2 x i8], [2 x i8], i8, i8, i8, i8, i8, i8, [7 x i8], i8, [3 x i8], i8, i8, [8 x [4 x i8]], [8 x [4 x i8]], [8 x [4 x i8]], i8, i8, i16 }

@.str.61 = private unnamed_addr constant [11 x i8] c"base_q_idx\00", align 1
@.str.62 = private unnamed_addr constant [25 x i8] c"delta_q_y_dc.delta_coded\00", align 1
@.str.63 = private unnamed_addr constant [21 x i8] c"delta_q_y_dc.delta_q\00", align 1
@.str.64 = private unnamed_addr constant [26 x i8] c"delta_q_uv_dc.delta_coded\00", align 1
@.str.65 = private unnamed_addr constant [22 x i8] c"delta_q_uv_dc.delta_q\00", align 1
@.str.66 = private unnamed_addr constant [26 x i8] c"delta_q_uv_ac.delta_coded\00", align 1
@.str.67 = private unnamed_addr constant [22 x i8] c"delta_q_uv_ac.delta_q\00", align 1

; Function Attrs: nounwind uwtable
define internal i32 @cbs_vp9_write_quantization_params(ptr noundef %0, ptr noundef %1, ptr noundef %2) #0 {
  %4 = alloca i32, align 4
  %5 = alloca ptr, align 8
  %6 = alloca ptr, align 8
  %7 = alloca ptr, align 8
  %8 = alloca i32, align 4
  %9 = alloca i32, align 4
  store ptr %0, ptr %5, align 8, !tbaa !4
  store ptr %1, ptr %6, align 8, !tbaa !45
  store ptr %2, ptr %7, align 8, !tbaa !79
  call void @llvm.lifetime.start.p0(i64 4, ptr %8) #8
  br label %10

10:                                               ; preds = %3
  br label %11

11:                                               ; preds = %10
  %12 = load ptr, ptr %5, align 8, !tbaa !4
  %13 = load ptr, ptr %6, align 8, !tbaa !45
  %14 = load ptr, ptr %7, align 8, !tbaa !79
  %15 = getelementptr inbounds nuw %struct.VP9RawFrameHeader, ptr %14, i32 0, i32 38
  %16 = load i8, ptr %15, align 2, !tbaa !141
  %17 = zext i8 %16 to i32
  %18 = call i32 @ff_cbs_write_simple_unsigned(ptr noundef %12, ptr noundef %13, i32 noundef 8, ptr noundef @.str.61, i32 noundef %17)
  store i32 %18, ptr %8, align 4, !tbaa !11
  %19 = load i32, ptr %8, align 4, !tbaa !11
  %20 = icmp slt i32 %19, 0
  br i1 %20, label %21, label %23

21:                                               ; preds = %11
  %22 = load i32, ptr %8, align 4, !tbaa !11
  store i32 %22, ptr %4, align 4
  store i32 1, ptr %9, align 4
  br label %172

23:                                               ; preds = %11
  br label %24

24:                                               ; preds = %23
  br label %25

25:                                               ; preds = %24
  br label %26

26:                                               ; preds = %25
  br label %27

27:                                               ; preds = %26
  br label %28

28:                                               ; preds = %27
  br label %29

29:                                               ; preds = %28
  br label %30

30:                                               ; preds = %29
  %31 = load ptr, ptr %5, align 8, !tbaa !4
  %32 = load ptr, ptr %6, align 8, !tbaa !45
  %33 = load ptr, ptr %7, align 8, !tbaa !79
  %34 = getelementptr inbounds nuw %struct.VP9RawFrameHeader, ptr %33, i32 0, i32 39
  %35 = load i8, ptr %34, align 1, !tbaa !142
  %36 = icmp ne i8 %35, 0
  %37 = xor i1 %36, true
  %38 = xor i1 %37, true
  %39 = zext i1 %38 to i32
  %40 = call i32 @ff_cbs_write_unsigned(ptr noundef %31, ptr noundef %32, i32 noundef 1, ptr noundef @.str.62, ptr noundef null, i32 noundef %39, i32 noundef 0, i32 noundef 1)
  store i32 %40, ptr %8, align 4, !tbaa !11
  %41 = load i32, ptr %8, align 4, !tbaa !11
  %42 = icmp slt i32 %41, 0
  br i1 %42, label %43, label %45

43:                                               ; preds = %30
  %44 = load i32, ptr %8, align 4, !tbaa !11
  store i32 %44, ptr %4, align 4
  store i32 1, ptr %9, align 4
  br label %172

45:                                               ; preds = %30
  br label %46

46:                                               ; preds = %45
  br label %47

47:                                               ; preds = %46
  br label %48

48:                                               ; preds = %47
  br label %49

49:                                               ; preds = %48
  %50 = load ptr, ptr %7, align 8, !tbaa !79
  %51 = getelementptr inbounds nuw %struct.VP9RawFrameHeader, ptr %50, i32 0, i32 39
  %52 = load i8, ptr %51, align 1, !tbaa !142
  %53 = icmp ne i8 %52, 0
  br i1 %53, label %54, label %73

54:                                               ; preds = %49
  br label %55

55:                                               ; preds = %54
  br label %56

56:                                               ; preds = %55
  %57 = load ptr, ptr %5, align 8, !tbaa !4
  %58 = load ptr, ptr %6, align 8, !tbaa !45
  %59 = load ptr, ptr %7, align 8, !tbaa !79
  %60 = getelementptr inbounds nuw %struct.VP9RawFrameHeader, ptr %59, i32 0, i32 39
  %61 = load i8, ptr %60, align 1, !tbaa !142
  %62 = sext i8 %61 to i32
  %63 = call i32 @cbs_vp9_write_s(ptr noundef %57, ptr noundef %58, i32 noundef 4, ptr noundef @.str.63, ptr noundef null, i32 noundef %62)
  store i32 %63, ptr %8, align 4, !tbaa !11
  %64 = load i32, ptr %8, align 4, !tbaa !11
  %65 = icmp slt i32 %64, 0
  br i1 %65, label %66, label %68

66:                                               ; preds = %56
  %67 = load i32, ptr %8, align 4, !tbaa !11
  store i32 %67, ptr %4, align 4
  store i32 1, ptr %9, align 4
  br label %172

68:                                               ; preds = %56
  br label %69

69:                                               ; preds = %68
  br label %70

70:                                               ; preds = %69
  br label %71

71:                                               ; preds = %70
  br label %72

72:                                               ; preds = %71
  br label %73

73:                                               ; preds = %72, %49
  br label %74

74:                                               ; preds = %73
  br label %75

75:                                               ; preds = %74
  br label %76

76:                                               ; preds = %75
  br label %77

77:                                               ; preds = %76
  br label %78

78:                                               ; preds = %77
  %79 = load ptr, ptr %5, align 8, !tbaa !4
  %80 = load ptr, ptr %6, align 8, !tbaa !45
  %81 = load ptr, ptr %7, align 8, !tbaa !79
  %82 = getelementptr inbounds nuw %struct.VP9RawFrameHeader, ptr %81, i32 0, i32 40
  %83 = load i8, ptr %82, align 2, !tbaa !143
  %84 = icmp ne i8 %83, 0
  %85 = xor i1 %84, true
  %86 = xor i1 %85, true
  %87 = zext i1 %86 to i32
  %88 = call i32 @ff_cbs_write_unsigned(ptr noundef %79, ptr noundef %80, i32 noundef 1, ptr noundef @.str.64, ptr noundef null, i32 noundef %87, i32 noundef 0, i32 noundef 1)
  store i32 %88, ptr %8, align 4, !tbaa !11
  %89 = load i32, ptr %8, align 4, !tbaa !11
  %90 = icmp slt i32 %89, 0
  br i1 %90, label %91, label %93

91:                                               ; preds = %78
  %92 = load i32, ptr %8, align 4, !tbaa !11
  store i32 %92, ptr %4, align 4
  store i32 1, ptr %9, align 4
  br label %172

93:                                               ; preds = %78
  br label %94

94:                                               ; preds = %93
  br label %95

95:                                               ; preds = %94
  br label %96

96:                                               ; preds = %95
  br label %97

97:                                               ; preds = %96
  %98 = load ptr, ptr %7, align 8, !tbaa !79
  %99 = getelementptr inbounds nuw %struct.VP9RawFrameHeader, ptr %98, i32 0, i32 40
  %100 = load i8, ptr %99, align 2, !tbaa !143
  %101 = icmp ne i8 %100, 0
  br i1 %101, label %102, label %121

102:                                              ; preds = %97
  br label %103

103:                                              ; preds = %102
  br label %104

104:                                              ; preds = %103
  %105 = load ptr, ptr %5, align 8, !tbaa !4
  %106 = load ptr, ptr %6, align 8, !tbaa !45
  %107 = load ptr, ptr %7, align 8, !tbaa !79
  %108 = getelementptr inbounds nuw %struct.VP9RawFrameHeader, ptr %107, i32 0, i32 40
  %109 = load i8, ptr %108, align 2, !tbaa !143
  %110 = sext i8 %109 to i32
  %111 = call i32 @cbs_vp9_write_s(ptr noundef %105, ptr noundef %106, i32 noundef 4, ptr noundef @.str.65, ptr noundef null, i32 noundef %110)
  store i32 %111, ptr %8, align 4, !tbaa !11
  %112 = load i32, ptr %8, align 4, !tbaa !11
  %113 = icmp slt i32 %112, 0
  br i1 %113, label %114, label %116

114:                                              ; preds = %104
  %115 = load i32, ptr %8, align 4, !tbaa !11
  store i32 %115, ptr %4, align 4
  store i32 1, ptr %9, align 4
  br label %172

116:                                              ; preds = %104
  br label %117

117:                                              ; preds = %116
  br label %118

118:                                              ; preds = %117
  br label %119

119:                                              ; preds = %118
  br label %120

120:                                              ; preds = %119
  br label %121

121:                                              ; preds = %120, %97
  br label %122

122:                                              ; preds = %121
  br label %123

123:                                              ; preds = %122
  br label %124

124:                                              ; preds = %123
  br label %125

125:                                              ; preds = %124
  br label %126

126:                                              ; preds = %125
  %127 = load ptr, ptr %5, align 8, !tbaa !4
  %128 = load ptr, ptr %6, align 8, !tbaa !45
  %129 = load ptr, ptr %7, align 8, !tbaa !79
  %130 = getelementptr inbounds nuw %struct.VP9RawFrameHeader, ptr %129, i32 0, i32 41
  %131 = load i8, ptr %130, align 1, !tbaa !144
  %132 = icmp ne i8 %131, 0
  %133 = xor i1 %132, true
  %134 = xor i1 %133, true
  %135 = zext i1 %134 to i32
  %136 = call i32 @ff_cbs_write_unsigned(ptr noundef %127, ptr noundef %128, i32 noundef 1, ptr noundef @.str.66, ptr noundef null, i32 noundef %135, i32 noundef 0, i32 noundef 1)
  store i32 %136, ptr %8, align 4, !tbaa !11
  %137 = load i32, ptr %8, align 4, !tbaa !11
  %138 = icmp slt i32 %137, 0
  br i1 %138, label %139, label %141

139:                                              ; preds = %126
  %140 = load i32, ptr %8, align 4, !tbaa !11
  store i32 %140, ptr %4, align 4
  store i32 1, ptr %9, align 4
  br label %172

141:                                              ; preds = %126
  br label %142

142:                                              ; preds = %141
  br label %143

143:                                              ; preds = %142
  br label %144

144:                                              ; preds = %143
  br label %145

145:                                              ; preds = %144
  %146 = load ptr, ptr %7, align 8, !tbaa !79
  %147 = getelementptr inbounds nuw %struct.VP9RawFrameHeader, ptr %146, i32 0, i32 41
  %148 = load i8, ptr %147, align 1, !tbaa !144
  %149 = icmp ne i8 %148, 0
  br i1 %149, label %150, label %169

150:                                              ; preds = %145
  br label %151

151:                                              ; preds = %150
  br label %152

152:                                              ; preds = %151
  %153 = load ptr, ptr %5, align 8, !tbaa !4
  %154 = load ptr, ptr %6, align 8, !tbaa !45
  %155 = load ptr, ptr %7, align 8, !tbaa !79
  %156 = getelementptr inbounds nuw %struct.VP9RawFrameHeader, ptr %155, i32 0, i32 41
  %157 = load i8, ptr %156, align 1, !tbaa !144
  %158 = sext i8 %157 to i32
  %159 = call i32 @cbs_vp9_write_s(ptr noundef %153, ptr noundef %154, i32 noundef 4, ptr noundef @.str.67, ptr noundef null, i32 noundef %158)
  store i32 %159, ptr %8, align 4, !tbaa !11
  %160 = load i32, ptr %8, align 4, !tbaa !11
  %161 = icmp slt i32 %160, 0
  br i1 %161, label %162, label %164

162:                                              ; preds = %152
  %163 = load i32, ptr %8, align 4, !tbaa !11
  store i32 %163, ptr %4, align 4
  store i32 1, ptr %9, align 4
  br label %172

164:                                              ; preds = %152
  br label %165

165:                                              ; preds = %164
  br label %166

166:                                              ; preds = %165
  br label %167

167:                                              ; preds = %166
  br label %168

168:                                              ; preds = %167
  br label %169

169:                                              ; preds = %168, %145
  br label %170

170:                                              ; preds = %169
  br label %171

171:                                              ; preds = %170
  store i32 0, ptr %4, align 4
  store i32 1, ptr %9, align 4
  br label %172

172:                                              ; preds = %171, %162, %139, %114, %91, %66, %43, %21
  call void @llvm.lifetime.end.p0(i64 4, ptr %8) #8
  %173 = load i32, ptr %4, align 4
  ret i32 %173
}