; Function Attrs: nounwind uwtable
define internal fastcc range(i32 -2147483648, 1) i32 @cbs_vp9_write_quantization_params(ptr noundef %0, ptr noundef %1, ptr noundef readonly captures(none) %2) unnamed_addr #0 {
  %4 = getelementptr inbounds nuw i8, ptr %2, i64 58
  %5 = load i8, ptr %4, align 2, !tbaa !128
  %6 = zext i8 %5 to i32
  %7 = tail call i32 @ff_cbs_write_simple_unsigned(ptr noundef %0, ptr noundef %1, i32 noundef 8, ptr noundef nonnull @.str.61, i32 noundef %6) #8
  %8 = icmp slt i32 %7, 0
  br i1 %8, label %49, label %9

9:                                                ; preds = %3
  %10 = getelementptr inbounds nuw i8, ptr %2, i64 59
  %11 = load i8, ptr %10, align 1, !tbaa !129
  %12 = icmp ne i8 %11, 0
  %13 = zext i1 %12 to i32
  %14 = tail call i32 @ff_cbs_write_unsigned(ptr noundef %0, ptr noundef %1, i32 noundef 1, ptr noundef nonnull @.str.62, ptr noundef null, i32 noundef %13, i32 noundef 0, i32 noundef 1) #8
  %15 = icmp slt i32 %14, 0
  br i1 %15, label %49, label %16

16:                                               ; preds = %9
  %17 = load i8, ptr %10, align 1, !tbaa !129
  %.not = icmp eq i8 %17, 0
  br i1 %.not, label %22, label %18

18:                                               ; preds = %16
  %19 = sext i8 %17 to i32
  %20 = tail call fastcc i32 @cbs_vp9_write_s(ptr noundef %0, ptr noundef %1, i32 noundef 4, ptr noundef nonnull @.str.63, ptr noundef null, i32 noundef %19)
  %21 = icmp slt i32 %20, 0
  br i1 %21, label %49, label %22

22:                                               ; preds = %16, %18
  %23 = getelementptr inbounds nuw i8, ptr %2, i64 60
  %24 = load i8, ptr %23, align 2, !tbaa !130
  %25 = icmp ne i8 %24, 0
  %26 = zext i1 %25 to i32
  %27 = tail call i32 @ff_cbs_write_unsigned(ptr noundef %0, ptr noundef %1, i32 noundef 1, ptr noundef nonnull @.str.64, ptr noundef null, i32 noundef %26, i32 noundef 0, i32 noundef 1) #8
  %28 = icmp slt i32 %27, 0
  br i1 %28, label %49, label %29

29:                                               ; preds = %22
  %30 = load i8, ptr %23, align 2, !tbaa !130
  %.not48 = icmp eq i8 %30, 0
  br i1 %.not48, label %35, label %31

31:                                               ; preds = %29
  %32 = sext i8 %30 to i32
  %33 = tail call fastcc i32 @cbs_vp9_write_s(ptr noundef %0, ptr noundef %1, i32 noundef 4, ptr noundef nonnull @.str.65, ptr noundef null, i32 noundef %32)
  %34 = icmp slt i32 %33, 0
  br i1 %34, label %49, label %35

35:                                               ; preds = %29, %31
  %36 = getelementptr inbounds nuw i8, ptr %2, i64 61
  %37 = load i8, ptr %36, align 1, !tbaa !131
  %38 = icmp ne i8 %37, 0
  %39 = zext i1 %38 to i32
  %40 = tail call i32 @ff_cbs_write_unsigned(ptr noundef %0, ptr noundef %1, i32 noundef 1, ptr noundef nonnull @.str.66, ptr noundef null, i32 noundef %39, i32 noundef 0, i32 noundef 1) #8
  %41 = icmp slt i32 %40, 0
  br i1 %41, label %49, label %42

42:                                               ; preds = %35
  %43 = load i8, ptr %36, align 1, !tbaa !131
  %.not49 = icmp eq i8 %43, 0
  br i1 %.not49, label %48, label %44

44:                                               ; preds = %42
  %45 = sext i8 %43 to i32
  %46 = tail call fastcc i32 @cbs_vp9_write_s(ptr noundef %0, ptr noundef %1, i32 noundef 4, ptr noundef nonnull @.str.67, ptr noundef null, i32 noundef %45)
  %47 = icmp slt i32 %46, 0
  br i1 %47, label %49, label %48

48:                                               ; preds = %44, %42
  br label %49

49:                                               ; preds = %44, %35, %31, %22, %18, %9, %3, %48
  %.0 = phi i32 [ 0, %48 ], [ %7, %3 ], [ %14, %9 ], [ %20, %18 ], [ %27, %22 ], [ %33, %31 ], [ %40, %35 ], [ %46, %44 ]
  ret i32 %.0
}